; Function Attrs: mustprogress nounwind uwtable
define dso_local { i64, i32 } @_ZNK5clang6format21BreakableBlockComment14getReflowSplitEjRKN4llvm5RegexE(ptr noundef nonnull align 8 dereferenceable(860) %0, i32 noundef %1, ptr noundef nonnull align 8 dereferenceable(12) %2) unnamed_addr #0 align 2 {
  %4 = load ptr, ptr %0, align 8
  %5 = getelementptr inbounds i8, ptr %4, i64 144
  %6 = load ptr, ptr %5, align 8
  %7 = tail call noundef zeroext i1 %6(ptr noundef nonnull align 8 dereferenceable(860) %0, i32 noundef %1, ptr noundef nonnull align 8 dereferenceable(12) %2) #21
  br i1 %7, label %8, label %26

8:                                                ; preds = %3
  %9 = getelementptr inbounds nuw i8, ptr %0, i64 304
  %10 = zext i32 %1 to i64
  %11 = load ptr, ptr %9, align 8
  %12 = getelementptr inbounds %"class.llvm::StringRef", ptr %11, i64 %10
  %13 = tail call noundef i64 @_ZNK4llvm9StringRef17find_first_not_ofES0_m(ptr noundef nonnull align 8 dereferenceable(16) %12, ptr nonnull @.str.48, i64 5, i64 noundef 0) #21
  %.not = icmp eq i32 %1, 0
  br i1 %.not, label %23, label %14

14:                                               ; preds = %8
  %15 = add i32 %1, -1
  %16 = load ptr, ptr %0, align 8
  %17 = getelementptr inbounds i8, ptr %16, i64 48
  %18 = load ptr, ptr %17, align 8
  %19 = tail call noundef i32 %18(ptr noundef nonnull align 8 dereferenceable(860) %0, i32 noundef %15) #21
  %20 = icmp eq i32 %19, 0
  %21 = icmp eq i64 %13, -1
  %or.cond.not22 = or i1 %21, %20
  %22 = zext i32 %19 to i64
  %.not14 = icmp eq i64 %13, %22
  %or.cond16 = or i1 %or.cond.not22, %.not14
  br i1 %or.cond16, label %23, label %26

23:                                               ; preds = %14, %8
  %.not15 = icmp eq i64 %13, -1
  %24 = trunc i64 %13 to i32
  %25 = select i1 %.not15, i32 0, i32 %24
  br label %26

26:                                               ; preds = %14, %3, %23
  %.sroa.0.0 = phi i64 [ 0, %23 ], [ -1, %3 ], [ -1, %14 ]
  %.sroa.4.0 = phi i32 [ %25, %23 ], [ 0, %3 ], [ 0, %14 ]
  %.fca.0.insert = insertvalue { i64, i32 } poison, i64 %.sroa.0.0, 0
  %.fca.1.insert = insertvalue { i64, i32 } %.fca.0.insert, i32 %.sroa.4.0, 1
  ret { i64, i32 } %.fca.1.insert
}